target datalayout = "e-m:e-p270:32:32-p271:32:32-p272:64:64-i64:64-i128:128-f80:128-n8:16:32:64-S128"
target triple = "x86_64-pc-linux-gnu"

%"class.arrow::SmallBasicDecimal" = type { i32 }
%"class.arrow::BasicDecimal32" = type { %"class.arrow::SmallBasicDecimal" }

; Function Attrs: mustprogress nounwind uwtable
define weak_odr noundef i32 @_ZNK5arrow17SmallBasicDecimalIiE5valueEv(ptr noundef nonnull align 4 dereferenceable(4) %0) #0 comdat align 2 {
  %2 = alloca ptr, align 8
  store ptr %0, ptr %2, align 8, !tbaa !25
  %3 = load ptr, ptr %2, align 8
  %4 = getelementptr inbounds nuw %"class.arrow::SmallBasicDecimal", ptr %3, i32 0, i32 0
  %5 = load i32, ptr %4, align 4, !tbaa !27
  ret i32 %5
}

; Function Attrs: mustprogress nounwind uwtable
define linkonce_odr noundef nonnull align 4 dereferenceable(4) ptr @_ZN5arrow14BasicDecimal32mLERKS0_(ptr noundef nonnull align 4 dereferenceable(4) %0, ptr noundef nonnull align 4 dereferenceable(4) %1) #0 comdat align 2 {
  %3 = alloca ptr, align 8
  %4 = alloca ptr, align 8
  store ptr %0, ptr %3, align 8, !tbaa !41
  store ptr %1, ptr %4, align 8, !tbaa !41
  %5 = load ptr, ptr %3, align 8
  %6 = load ptr, ptr %4, align 8, !tbaa !41
  %7 = getelementptr inbounds nuw %"class.arrow::SmallBasicDecimal", ptr %6, i32 0, i32 0
  %8 = load i32, ptr %7, align 4, !tbaa !27
  %9 = sext i32 %8 to i64
  %10 = getelementptr inbounds nuw %"class.arrow::SmallBasicDecimal", ptr %5, i32 0, i32 0
  %11 = load i32, ptr %10, align 4, !tbaa !27
  %12 = sext i32 %11 to i64
  %13 = mul i64 %12, %9
  %14 = trunc i64 %13 to i32
  store i32 %14, ptr %10, align 4, !tbaa !27
  ret ptr %5
}

; Function Attrs: mustprogress nounwind uwtable
define weak_odr void @_ZN5arrow17SmallBasicDecimalIiEC2Ev(ptr noundef nonnull align 4 dereferenceable(4) %0) unnamed_addr #0 comdat($_ZN5arrow17SmallBasicDecimalIiEC5Ev) align 2 {
  %2 = alloca ptr, align 8
  store ptr %0, ptr %2, align 8, !tbaa !25
  %3 = load ptr, ptr %2, align 8
  %4 = getelementptr inbounds nuw %"class.arrow::SmallBasicDecimal", ptr %3, i32 0, i32 0
  store i32 0, ptr %4, align 4, !tbaa !27
  ret void
}

; Function Attrs: mustprogress nounwind uwtable
define noundef zeroext i1 @_ZN5arrowgtERKNS_14BasicDecimal32ES2_(ptr noundef nonnull align 4 dereferenceable(4) %0, ptr noundef nonnull align 4 dereferenceable(4) %1) #0 {
  %3 = alloca ptr, align 8
  %4 = alloca ptr, align 8
  store ptr %0, ptr %3, align 8, !tbaa !41
  store ptr %1, ptr %4, align 8, !tbaa !41
  %5 = load ptr, ptr %3, align 8, !tbaa !41
  %6 = call noundef i32 @_ZNK5arrow17SmallBasicDecimalIiE5valueEv(ptr noundef nonnull align 4 dereferenceable(4) %5)
  %7 = load ptr, ptr %4, align 8, !tbaa !41
  %8 = call noundef i32 @_ZNK5arrow17SmallBasicDecimalIiE5valueEv(ptr noundef nonnull align 4 dereferenceable(4) %7)
  %9 = icmp sgt i32 %6, %8
  ret i1 %9
}

; Function Attrs: mustprogress nounwind uwtable
define noundef zeroext i1 @_ZN5arrowltERKNS_14BasicDecimal32ES2_(ptr noundef nonnull align 4 dereferenceable(4) %0, ptr noundef nonnull align 4 dereferenceable(4) %1) #0 {
  %3 = alloca ptr, align 8
  %4 = alloca ptr, align 8
  store ptr %0, ptr %3, align 8, !tbaa !41
  store ptr %1, ptr %4, align 8, !tbaa !41
  %5 = load ptr, ptr %3, align 8, !tbaa !41
  %6 = call noundef i32 @_ZNK5arrow17SmallBasicDecimalIiE5valueEv(ptr noundef nonnull align 4 dereferenceable(4) %5)
  %7 = load ptr, ptr %4, align 8, !tbaa !41
  %8 = call noundef i32 @_ZNK5arrow17SmallBasicDecimalIiE5valueEv(ptr noundef nonnull align 4 dereferenceable(4) %7)
  %9 = icmp slt i32 %6, %8
  ret i1 %9
}

; Function Attrs: inlinehint mustprogress nounwind uwtable
define linkonce_odr void @_ZN5arrow14BasicDecimal32CI2NS_17SmallBasicDecimalIiEEIiiEET_(ptr noundef nonnull align 4 dereferenceable(4) %0, i32 noundef %1) unnamed_addr #3 comdat align 2 {
  %3 = alloca ptr, align 8
  %4 = alloca i32, align 4
  store ptr %0, ptr %3, align 8, !tbaa !41
  store i32 %1, ptr %4, align 4, !tbaa !30
  %5 = load ptr, ptr %3, align 8
  %6 = load i32, ptr %4, align 4, !tbaa !30
  call void @_ZN5arrow17SmallBasicDecimalIiEC2IiiEET_(ptr noundef nonnull align 4 dereferenceable(4) %5, i32 noundef %6) #12
  ret void
}

; Function Attrs: mustprogress uwtable
define i32 @_ZN5arrowmlERKNS_14BasicDecimal32ES2_(ptr noundef nonnull align 4 dereferenceable(4) %0, ptr noundef nonnull align 4 dereferenceable(4) %1) #6 {
  %3 = alloca %"class.arrow::BasicDecimal32", align 4
  %4 = alloca ptr, align 8
  %5 = alloca ptr, align 8
  %6 = alloca %"class.arrow::BasicDecimal32", align 4
  store ptr %0, ptr %4, align 8, !tbaa !41
  store ptr %1, ptr %5, align 8, !tbaa !41
  call void @llvm.lifetime.start.p0(i64 4, ptr %6) #12
  %7 = load ptr, ptr %4, align 8, !tbaa !41
  call void @llvm.memcpy.p0.p0.i64(ptr align 4 %6, ptr align 4 %7, i64 4, i1 false)
  %8 = load ptr, ptr %5, align 8, !tbaa !41
  %9 = call noundef nonnull align 4 dereferenceable(4) ptr @_ZN5arrow14BasicDecimal32mLERKS0_(ptr noundef nonnull align 4 dereferenceable(4) %6, ptr noundef nonnull align 4 dereferenceable(4) %8)
  call void @llvm.memcpy.p0.p0.i64(ptr align 4 %3, ptr align 4 %9, i64 4, i1 false)
  call void @llvm.lifetime.end.p0(i64 4, ptr %6) #12
  %10 = getelementptr inbounds nuw %"class.arrow::BasicDecimal32", ptr %3, i32 0, i32 0
  %11 = getelementptr inbounds nuw %"class.arrow::SmallBasicDecimal", ptr %10, i32 0, i32 0
  %12 = load i32, ptr %11, align 4
  ret i32 %12
}

; Function Attrs: mustprogress nounwind uwtable
define linkonce_odr noundef zeroext i1 @_ZN5arrowneERKNS_17SmallBasicDecimalIiEES3_(ptr noundef nonnull align 4 dereferenceable(4) %0, ptr noundef nonnull align 4 dereferenceable(4) %1) #0 comdat {
  %3 = alloca ptr, align 8
  %4 = alloca ptr, align 8
  store ptr %0, ptr %3, align 8, !tbaa !25
  store ptr %1, ptr %4, align 8, !tbaa !25
  %5 = load ptr, ptr %3, align 8, !tbaa !25
  %6 = getelementptr inbounds nuw %"class.arrow::SmallBasicDecimal", ptr %5, i32 0, i32 0
  %7 = load i32, ptr %6, align 4, !tbaa !27
  %8 = load ptr, ptr %4, align 8, !tbaa !25
  %9 = getelementptr inbounds nuw %"class.arrow::SmallBasicDecimal", ptr %8, i32 0, i32 0
  %10 = load i32, ptr %9, align 4, !tbaa !27
  %11 = icmp ne i32 %7, %10
  ret i1 %11
}

; Function Attrs: mustprogress nounwind uwtable
define linkonce_odr void @_ZN5arrow17SmallBasicDecimalIiEC2IiiEET_(ptr noundef nonnull align 4 dereferenceable(4) %0, i32 noundef %1) unnamed_addr #0 comdat align 2 {
  %3 = alloca ptr, align 8
  %4 = alloca i32, align 4
  store ptr %0, ptr %3, align 8, !tbaa !25
  store i32 %1, ptr %4, align 4, !tbaa !30
  %5 = load ptr, ptr %3, align 8
  %6 = getelementptr inbounds nuw %"class.arrow::SmallBasicDecimal", ptr %5, i32 0, i32 0
  %7 = load i32, ptr %4, align 4, !tbaa !30
  store i32 %7, ptr %6, align 4, !tbaa !27
  ret void
}

; Function Attrs: mustprogress nounwind uwtable
define noundef i32 @_ZNK5arrow14BasicDecimal326DivideERKS0_PS0_S3_(ptr noundef nonnull align 4 dereferenceable(4) %0, ptr noundef nonnull align 4 dereferenceable(4) %1, ptr noundef %2, ptr noundef %3) #0 align 2 {
  %5 = alloca i32, align 4
  %6 = alloca ptr, align 8
  %7 = alloca ptr, align 8
  %8 = alloca ptr, align 8
  %9 = alloca ptr, align 8
  %10 = alloca %"class.arrow::BasicDecimal32", align 4
  %11 = alloca %"class.arrow::BasicDecimal32", align 4
  store ptr %0, ptr %6, align 8, !tbaa !41
  store ptr %1, ptr %7, align 8, !tbaa !41
  store ptr %2, ptr %8, align 8, !tbaa !41
  store ptr %3, ptr %9, align 8, !tbaa !41
  %12 = load ptr, ptr %6, align 8
  %13 = load ptr, ptr %7, align 8, !tbaa !41
  %14 = getelementptr inbounds nuw %"class.arrow::SmallBasicDecimal", ptr %13, i32 0, i32 0
  %15 = load i32, ptr %14, align 4, !tbaa !27
  %16 = icmp eq i32 %15, 0
  br i1 %16, label %17, label %18

17:                                               ; preds = %4
  store i32 1, ptr %5, align 4
  br label %37

18:                                               ; preds = %4
  call void @llvm.lifetime.start.p0(i64 4, ptr %10) #12
  %19 = getelementptr inbounds nuw %"class.arrow::SmallBasicDecimal", ptr %12, i32 0, i32 0
  %20 = load i32, ptr %19, align 4, !tbaa !27
  %21 = load ptr, ptr %7, align 8, !tbaa !41
  %22 = getelementptr inbounds nuw %"class.arrow::SmallBasicDecimal", ptr %21, i32 0, i32 0
  %23 = load i32, ptr %22, align 4, !tbaa !27
  %24 = sdiv i32 %20, %23
  call void @_ZN5arrow14BasicDecimal32CI2NS_17SmallBasicDecimalIiEEIiiEET_(ptr noundef nonnull align 4 dereferenceable(4) %10, i32 noundef %24) #12
  %25 = load ptr, ptr %8, align 8, !tbaa !41
  call void @llvm.memcpy.p0.p0.i64(ptr align 4 %25, ptr align 4 %10, i64 4, i1 false)
  call void @llvm.lifetime.end.p0(i64 4, ptr %10) #12
  %26 = load ptr, ptr %9, align 8, !tbaa !41
  %27 = icmp ne ptr %26, null
  br i1 %27, label %28, label %36

28:                                               ; preds = %18
  call void @llvm.lifetime.start.p0(i64 4, ptr %11) #12
  %29 = getelementptr inbounds nuw %"class.arrow::SmallBasicDecimal", ptr %12, i32 0, i32 0
  %30 = load i32, ptr %29, align 4, !tbaa !27
  %31 = load ptr, ptr %7, align 8, !tbaa !41
  %32 = getelementptr inbounds nuw %"class.arrow::SmallBasicDecimal", ptr %31, i32 0, i32 0
  %33 = load i32, ptr %32, align 4, !tbaa !27
  %34 = srem i32 %30, %33
  call void @_ZN5arrow14BasicDecimal32CI2NS_17SmallBasicDecimalIiEEIiiEET_(ptr noundef nonnull align 4 dereferenceable(4) %11, i32 noundef %34) #12
  %35 = load ptr, ptr %9, align 8, !tbaa !41
  call void @llvm.memcpy.p0.p0.i64(ptr align 4 %35, ptr align 4 %11, i64 4, i1 false)
  call void @llvm.lifetime.end.p0(i64 4, ptr %11) #12
  br label %36

36:                                               ; preds = %28, %18
  store i32 0, ptr %5, align 4
  br label %37

37:                                               ; preds = %36, %17
  %38 = load i32, ptr %5, align 4
  ret i32 %38
}

; Function Attrs: inlinehint mustprogress nounwind uwtable
define linkonce_odr void @_ZN5arrow14BasicDecimal32C2Ev(ptr noundef nonnull align 4 dereferenceable(4) %0) unnamed_addr #3 comdat align 2 {
  %2 = alloca ptr, align 8
  store ptr %0, ptr %2, align 8, !tbaa !41
  %3 = load ptr, ptr %2, align 8
  call void @_ZN5arrow17SmallBasicDecimalIiEC2Ev(ptr noundef nonnull align 4 dereferenceable(4) %3) #12
  ret void
}

; Function Attrs: mustprogress nounwind uwtable
define linkonce_odr noundef ptr @_ZN5arrow13DecimalTraitsINS_14BasicDecimal32EE13powers_of_tenEv() #0 comdat align 2 {
  ret ptr @_ZN5arrowL21kDecimal32PowersOfTenE
}

; Function Attrs: mustprogress uwtable
define internal noundef zeroext i1 @_ZN5arrowL25RescaleWouldCauseDataLossINS_14BasicDecimal32EEEbRKT_iS4_PS2_(ptr noundef nonnull align 4 dereferenceable(4) %0, i32 noundef %1, ptr noundef nonnull align 4 dereferenceable(4) %2, ptr noundef %3) #6 {
  %5 = alloca i1, align 1
  %6 = alloca ptr, align 8
  %7 = alloca i32, align 4
  %8 = alloca ptr, align 8
  %9 = alloca ptr, align 8
  %10 = alloca %"class.arrow::BasicDecimal32", align 4
  %11 = alloca i32, align 4
  %12 = alloca %"class.arrow::SmallBasicDecimal", align 4
  %13 = alloca %"class.arrow::BasicDecimal32", align 4
  %14 = alloca %"class.arrow::BasicDecimal32", align 4
  store ptr %0, ptr %6, align 8, !tbaa !41
  store i32 %1, ptr %7, align 4, !tbaa !30
  store ptr %2, ptr %8, align 8, !tbaa !41
  store ptr %3, ptr %9, align 8, !tbaa !41
  %15 = load i32, ptr %7, align 4, !tbaa !30
  %16 = icmp slt i32 %15, 0
  br i1 %16, label %17, label %41

17:                                               ; preds = %4
  br label %18

18:                                               ; preds = %19, %17
  br i1 false, label %19, label %20

19:                                               ; preds = %18
  br label %18, !llvm.loop !338

20:                                               ; preds = %18
  br label %21

21:                                               ; preds = %22, %20
  br i1 false, label %22, label %23

22:                                               ; preds = %21
  br label %21, !llvm.loop !339

23:                                               ; preds = %21
  br label %24

24:                                               ; preds = %25, %23
  br i1 false, label %25, label %26

25:                                               ; preds = %24
  br label %24, !llvm.loop !340

26:                                               ; preds = %24
  call void @llvm.lifetime.start.p0(i64 4, ptr %10) #12
  call void @_ZN5arrow14BasicDecimal32C2Ev(ptr noundef nonnull align 4 dereferenceable(4) %10) #12
  call void @llvm.lifetime.start.p0(i64 4, ptr %11) #12
  %27 = load ptr, ptr %6, align 8, !tbaa !41
  %28 = load ptr, ptr %8, align 8, !tbaa !41
  %29 = load ptr, ptr %9, align 8, !tbaa !41
  %30 = call noundef i32 @_ZNK5arrow14BasicDecimal326DivideERKS0_PS0_S3_(ptr noundef nonnull align 4 dereferenceable(4) %27, ptr noundef nonnull align 4 dereferenceable(4) %28, ptr noundef %29, ptr noundef %10)
  store i32 %30, ptr %11, align 4, !tbaa !50
  br label %31

31:                                               ; preds = %32, %26
  br i1 false, label %32, label %33

32:                                               ; preds = %31
  br label %31, !llvm.loop !341

33:                                               ; preds = %31
  br label %34

34:                                               ; preds = %35, %33
  br i1 false, label %35, label %36

35:                                               ; preds = %34
  br label %34, !llvm.loop !342

36:                                               ; preds = %34
  br label %37

37:                                               ; preds = %38, %36
  br i1 false, label %38, label %39

38:                                               ; preds = %37
  br label %37, !llvm.loop !343

39:                                               ; preds = %37
  call void @llvm.lifetime.start.p0(i64 4, ptr %12) #12
  call void @_ZN5arrow17SmallBasicDecimalIiEC2IiiEET_(ptr noundef nonnull align 4 dereferenceable(4) %12, i32 noundef 0) #12
  %40 = call noundef zeroext i1 @_ZN5arrowneERKNS_17SmallBasicDecimalIiEES3_(ptr noundef nonnull align 4 dereferenceable(4) %10, ptr noundef nonnull align 4 dereferenceable(4) %12)
  store i1 %40, ptr %5, align 1
  call void @llvm.lifetime.end.p0(i64 4, ptr %12) #12
  call void @llvm.lifetime.end.p0(i64 4, ptr %11) #12
  call void @llvm.lifetime.end.p0(i64 4, ptr %10) #12
  br label %60

41:                                               ; preds = %4
  call void @llvm.lifetime.start.p0(i64 4, ptr %13) #12
  %42 = load ptr, ptr %6, align 8, !tbaa !41
  %43 = load ptr, ptr %8, align 8, !tbaa !41
  %44 = call i32 @_ZN5arrowmlERKNS_14BasicDecimal32ES2_(ptr noundef nonnull align 4 dereferenceable(4) %42, ptr noundef nonnull align 4 dereferenceable(4) %43)
  %45 = getelementptr inbounds nuw %"class.arrow::BasicDecimal32", ptr %13, i32 0, i32 0
  %46 = getelementptr inbounds nuw %"class.arrow::SmallBasicDecimal", ptr %45, i32 0, i32 0
  store i32 %44, ptr %46, align 4
  %47 = load ptr, ptr %9, align 8, !tbaa !41
  call void @llvm.memcpy.p0.p0.i64(ptr align 4 %47, ptr align 4 %13, i64 4, i1 false)
  call void @llvm.lifetime.end.p0(i64 4, ptr %13) #12
  %48 = load ptr, ptr %6, align 8, !tbaa !41
  call void @llvm.lifetime.start.p0(i64 4, ptr %14) #12
  call void @_ZN5arrow14BasicDecimal32CI2NS_17SmallBasicDecimalIiEEIiiEET_(ptr noundef nonnull align 4 dereferenceable(4) %14, i32 noundef 0) #12
  %49 = call noundef zeroext i1 @_ZN5arrowltERKNS_14BasicDecimal32ES2_(ptr noundef nonnull align 4 dereferenceable(4) %48, ptr noundef nonnull align 4 dereferenceable(4) %14)
  br i1 %49, label %50, label %54

50:                                               ; preds = %41
  %51 = load ptr, ptr %9, align 8, !tbaa !41
  %52 = load ptr, ptr %6, align 8, !tbaa !41
  %53 = call noundef zeroext i1 @_ZN5arrowgtERKNS_14BasicDecimal32ES2_(ptr noundef nonnull align 4 dereferenceable(4) %51, ptr noundef nonnull align 4 dereferenceable(4) %52)
  br label %58

54:                                               ; preds = %41
  %55 = load ptr, ptr %9, align 8, !tbaa !41
  %56 = load ptr, ptr %6, align 8, !tbaa !41
  %57 = call noundef zeroext i1 @_ZN5arrowltERKNS_14BasicDecimal32ES2_(ptr noundef nonnull align 4 dereferenceable(4) %55, ptr noundef nonnull align 4 dereferenceable(4) %56)
  br label %58

58:                                               ; preds = %54, %50
  %59 = phi i1 [ %53, %50 ], [ %57, %54 ]
  store i1 %59, ptr %5, align 1
  call void @llvm.lifetime.end.p0(i64 4, ptr %14) #12
  br label %60

60:                                               ; preds = %58, %39
  %61 = load i1, ptr %5, align 1
  ret i1 %61
}

; Function Attrs: mustprogress uwtable
define noundef nonnull align 4 dereferenceable(4) ptr @_ZN5arrow14BasicDecimal3218GetScaleMultiplierEi(i32 noundef %0) #6 align 2 {
  %2 = alloca i32, align 4
  store i32 %0, ptr %2, align 4, !tbaa !30
  br label %3

3:                                                ; preds = %4, %1
  br i1 false, label %4, label %5

4:                                                ; preds = %3
  br label %3, !llvm.loop !80

5:                                                ; preds = %3
  br label %6

6:                                                ; preds = %7, %5
  br i1 false, label %7, label %8

7:                                                ; preds = %6
  br label %6, !llvm.loop !81

8:                                                ; preds = %6
  br label %9

9:                                                ; preds = %10, %8
  br i1 false, label %10, label %11

10:                                               ; preds = %9
  br label %9, !llvm.loop !82

11:                                               ; preds = %9
  br label %12

12:                                               ; preds = %13, %11
  br i1 false, label %13, label %14

13:                                               ; preds = %12
  br label %12, !llvm.loop !83

14:                                               ; preds = %12
  br label %15

15:                                               ; preds = %16, %14
  br i1 false, label %16, label %17

16:                                               ; preds = %15
  br label %15, !llvm.loop !84

17:                                               ; preds = %15
  br label %18

18:                                               ; preds = %19, %17
  br i1 false, label %19, label %20

19:                                               ; preds = %18
  br label %18, !llvm.loop !85

20:                                               ; preds = %18
  %21 = call noundef ptr @_ZN5arrow13DecimalTraitsINS_14BasicDecimal32EE13powers_of_tenEv()
  %22 = load i32, ptr %2, align 4, !tbaa !30
  %23 = sext i32 %22 to i64
  %24 = getelementptr inbounds %"class.arrow::BasicDecimal32", ptr %21, i64 %23
  ret ptr %24
}

; Function Attrs: mustprogress uwtable
define linkonce_odr noundef i32 @_ZN5arrow14DecimalRescaleINS_14BasicDecimal32EEENS_13DecimalStatusERKT_iiPS3_(ptr noundef nonnull align 4 dereferenceable(4) %0, i32 noundef %1, i32 noundef %2, ptr noundef %3) #6 comdat {
  %5 = alloca i32, align 4
  %6 = alloca ptr, align 8
  %7 = alloca i32, align 4
  %8 = alloca i32, align 4
  %9 = alloca ptr, align 8
  %10 = alloca i32, align 4
  %11 = alloca i32, align 4
  %12 = alloca %"class.arrow::BasicDecimal32", align 4
  %13 = alloca i8, align 1
  %14 = alloca i32, align 4
  store ptr %0, ptr %6, align 8, !tbaa !41
  store i32 %1, ptr %7, align 4, !tbaa !30
  store i32 %2, ptr %8, align 4, !tbaa !30
  store ptr %3, ptr %9, align 8, !tbaa !41
  br label %15

15:                                               ; preds = %16, %4
  br i1 false, label %16, label %17

16:                                               ; preds = %15
  br label %15, !llvm.loop !183

17:                                               ; preds = %15
  br label %18

18:                                               ; preds = %19, %17
  br i1 false, label %19, label %20

19:                                               ; preds = %18
  br label %18, !llvm.loop !184

20:                                               ; preds = %18
  br label %21

21:                                               ; preds = %22, %20
  br i1 false, label %22, label %23

22:                                               ; preds = %21
  br label %21, !llvm.loop !185

23:                                               ; preds = %21
  %24 = load i32, ptr %7, align 4, !tbaa !30
  %25 = load i32, ptr %8, align 4, !tbaa !30
  %26 = icmp eq i32 %24, %25
  br i1 %26, label %27, label %30

27:                                               ; preds = %23
  %28 = load ptr, ptr %6, align 8, !tbaa !41
  %29 = load ptr, ptr %9, align 8, !tbaa !41
  call void @llvm.memcpy.p0.p0.i64(ptr align 4 %29, ptr align 4 %28, i64 4, i1 false)
  store i32 0, ptr %5, align 4
  br label %53

30:                                               ; preds = %23
  call void @llvm.lifetime.start.p0(i64 4, ptr %10) #12
  %31 = load i32, ptr %8, align 4, !tbaa !30
  %32 = load i32, ptr %7, align 4, !tbaa !30
  %33 = sub nsw i32 %31, %32
  store i32 %33, ptr %10, align 4, !tbaa !30
  call void @llvm.lifetime.start.p0(i64 4, ptr %11) #12
  %34 = load i32, ptr %10, align 4, !tbaa !30
  %35 = call i32 @llvm.abs.i32(i32 %34, i1 true)
  store i32 %35, ptr %11, align 4, !tbaa !30
  call void @llvm.lifetime.start.p0(i64 4, ptr %12) #12
  %36 = load i32, ptr %11, align 4, !tbaa !30
  %37 = call noundef nonnull align 4 dereferenceable(4) ptr @_ZN5arrow14BasicDecimal3218GetScaleMultiplierEi(i32 noundef %36)
  call void @llvm.memcpy.p0.p0.i64(ptr align 4 %12, ptr align 4 %37, i64 4, i1 false)
  call void @llvm.lifetime.start.p0(i64 1, ptr %13) #12
  %38 = load ptr, ptr %6, align 8, !tbaa !41
  %39 = load i32, ptr %10, align 4, !tbaa !30
  %40 = load ptr, ptr %9, align 8, !tbaa !41
  %41 = call noundef zeroext i1 @_ZN5arrowL25RescaleWouldCauseDataLossINS_14BasicDecimal32EEEbRKT_iS4_PS2_(ptr noundef nonnull align 4 dereferenceable(4) %38, i32 noundef %39, ptr noundef nonnull align 4 dereferenceable(4) %12, ptr noundef %40)
  %42 = zext i1 %41 to i8
  store i8 %42, ptr %13, align 1, !tbaa !67
  %43 = load i8, ptr %13, align 1, !tbaa !67, !range !78, !noundef !79
  %44 = trunc i8 %43 to i1
  %45 = xor i1 %44, true
  %46 = xor i1 %45, true
  %47 = zext i1 %46 to i64
  %48 = call i64 @llvm.expect.i64(i64 %47, i64 0)
  %49 = icmp ne i64 %48, 0
  br i1 %49, label %50, label %51

50:                                               ; preds = %30
  store i32 3, ptr %5, align 4
  store i32 1, ptr %14, align 4
  br label %52

51:                                               ; preds = %30
  store i32 0, ptr %5, align 4
  store i32 1, ptr %14, align 4
  br label %52

52:                                               ; preds = %51, %50
  call void @llvm.lifetime.end.p0(i64 1, ptr %13) #12
  call void @llvm.lifetime.end.p0(i64 4, ptr %12) #12
  call void @llvm.lifetime.end.p0(i64 4, ptr %11) #12
  call void @llvm.lifetime.end.p0(i64 4, ptr %10) #12
  br label %53

53:                                               ; preds = %52, %27
  %54 = load i32, ptr %5, align 4
  ret i32 %54
}

; Function Attrs: mustprogress uwtable
define noundef i32 @_ZNK5arrow14BasicDecimal327RescaleEiiPS0_(ptr noundef nonnull align 4 dereferenceable(4) %0, i32 noundef %1, i32 noundef %2, ptr noundef %3) #6 align 2 {
  %5 = alloca ptr, align 8
  %6 = alloca i32, align 4
  %7 = alloca i32, align 4
  %8 = alloca ptr, align 8
  store ptr %0, ptr %5, align 8, !tbaa !41
  store i32 %1, ptr %6, align 4, !tbaa !30
  store i32 %2, ptr %7, align 4, !tbaa !30
  store ptr %3, ptr %8, align 8, !tbaa !41
  %9 = load ptr, ptr %5, align 8
  %10 = load i32, ptr %6, align 4, !tbaa !30
  %11 = load i32, ptr %7, align 4, !tbaa !30
  %12 = load ptr, ptr %8, align 8, !tbaa !41
  %13 = call noundef i32 @_ZN5arrow14DecimalRescaleINS_14BasicDecimal32EEENS_13DecimalStatusERKT_iiPS3_(ptr noundef nonnull align 4 dereferenceable(4) %9, i32 noundef %10, i32 noundef %11, ptr noundef %12)
  ret i32 %13
}