; Function Attrs: mustprogress nofree norecurse nosync nounwind willreturn memory(argmem: readwrite) uwtable
define noundef range(i32 0, 4) i32 @_ZNK5arrow14BasicDecimal327RescaleEiiPS0_(ptr noundef nonnull readonly align 4 captures(none) dereferenceable(4) %0, i32 noundef %1, i32 noundef %2, ptr noundef writeonly captures(none) %3) local_unnamed_addr #5 align 2 {
  %5 = icmp eq i32 %1, %2
  br i1 %5, label %6, label %8

6:                                                ; preds = %4
  %7 = load i32, ptr %0, align 4
  store i32 %7, ptr %3, align 4
  br label %_ZN5arrow14DecimalRescaleINS_14BasicDecimal32EEENS_13DecimalStatusERKT_iiPS3_.exit

8:                                                ; preds = %4
  %9 = sub nsw i32 %2, %1
  %10 = tail call i32 @llvm.abs.i32(i32 %9, i1 true)
  %11 = zext nneg i32 %10 to i64
  %12 = getelementptr inbounds nuw %"class.arrow::BasicDecimal32", ptr @_ZN5arrowL21kDecimal32PowersOfTenE, i64 %11
  %13 = load i32, ptr %12, align 4
  %14 = icmp slt i32 %9, 0
  br i1 %14, label %15, label %17

15:                                               ; preds = %8
  %16 = icmp eq i32 %13, 0
  br i1 %16, label %_ZN5arrow14DecimalRescaleINS_14BasicDecimal32EEENS_13DecimalStatusERKT_iiPS3_.exit, label %_ZN5arrowL25RescaleWouldCauseDataLossINS_14BasicDecimal32EEEbRKT_iS4_PS2_.exit.i

17:                                               ; preds = %8
  %18 = load i32, ptr %0, align 4
  %19 = mul i32 %18, %13
  store i32 %19, ptr %3, align 4
  %20 = load i32, ptr %0, align 4, !tbaa !10
  %21 = icmp slt i32 %20, 0
  br i1 %21, label %22, label %24

22:                                               ; preds = %17
  %23 = icmp sgt i32 %19, %20
  %cond.fr16.i = freeze i1 %23
  br i1 %cond.fr16.i, label %30, label %_ZN5arrow14DecimalRescaleINS_14BasicDecimal32EEENS_13DecimalStatusERKT_iiPS3_.exit, !prof !25

24:                                               ; preds = %17
  %25 = icmp slt i32 %19, %20
  %cond.fr17.i = freeze i1 %25
  br i1 %cond.fr17.i, label %30, label %_ZN5arrow14DecimalRescaleINS_14BasicDecimal32EEENS_13DecimalStatusERKT_iiPS3_.exit, !prof !25

_ZN5arrowL25RescaleWouldCauseDataLossINS_14BasicDecimal32EEEbRKT_iS4_PS2_.exit.i: ; preds = %15
  %26 = load i32, ptr %0, align 4, !tbaa !10
  %27 = sdiv i32 %26, %13
  store i32 %27, ptr %3, align 4
  %28 = load i32, ptr %0, align 4, !tbaa !10
  %29 = srem i32 %28, %13
  %.fr.i = freeze i32 %29
  %.not.i = icmp eq i32 %.fr.i, 0
  br i1 %.not.i, label %_ZN5arrow14DecimalRescaleINS_14BasicDecimal32EEENS_13DecimalStatusERKT_iiPS3_.exit, label %30, !prof !26

30:                                               ; preds = %_ZN5arrowL25RescaleWouldCauseDataLossINS_14BasicDecimal32EEEbRKT_iS4_PS2_.exit.i, %24, %22
  br label %_ZN5arrow14DecimalRescaleINS_14BasicDecimal32EEENS_13DecimalStatusERKT_iiPS3_.exit

_ZN5arrow14DecimalRescaleINS_14BasicDecimal32EEENS_13DecimalStatusERKT_iiPS3_.exit: ; preds = %6, %15, %22, %24, %_ZN5arrowL25RescaleWouldCauseDataLossINS_14BasicDecimal32EEEbRKT_iS4_PS2_.exit.i, %30
  %.0.i = phi i32 [ 0, %6 ], [ 3, %30 ], [ 0, %_ZN5arrowL25RescaleWouldCauseDataLossINS_14BasicDecimal32EEEbRKT_iS4_PS2_.exit.i ], [ 0, %22 ], [ 0, %24 ], [ 0, %15 ]
  ret i32 %.0.i
}